target datalayout = "e-m:e-p270:32:32-p271:32:32-p272:64:64-i64:64-i128:128-f80:128-n8:16:32:64-S128"
target triple = "x86_64-pc-linux-gnu"

%struct._packet_info = type { ptr, ptr, i32, i32, %struct.nstime_t, %struct.nstime_t, %struct.nstime_t, i8, ptr, ptr, ptr, ptr, %struct._address, %struct._address, %struct._address, %struct._address, %struct._address, %struct._address, i32, ptr, i8, [3 x i8], %struct.anon, i32, i32, i32, i32, ptr, i8, ptr, ptr, i16, i16, i32, i32, i16, i32, i32, ptr, ptr, ptr, i8, i8, i16, i16, i16, i32, i16, i16, ptr, ptr, ptr, ptr, ptr, i32, i32 }
%struct.nstime_t = type { i64, i32 }
%struct._address = type { i32, i32, ptr, ptr }
%struct.anon = type { i8, [3 x i8] }

@etch_magic = internal constant [4 x i8] c"\DE\AD\BE\EF", align 1
@gbl_pdu_counter = internal global i32 0, align 4
@.str.66 = private unnamed_addr constant [6 x i8] c"[%d] \00", align 1

; Function Attrs: null_pointer_is_valid sspstrong uwtable
define internal i32 @dissect_etch(ptr noundef %0, ptr noundef %1, ptr noundef %2, ptr noundef %3) #0 {
  %5 = alloca i32, align 4
  %6 = alloca ptr, align 8
  %7 = alloca ptr, align 8
  %8 = alloca ptr, align 8
  %9 = alloca ptr, align 8
  store ptr %0, ptr %6, align 8
  store ptr %1, ptr %7, align 8
  store ptr %2, ptr %8, align 8
  store ptr %3, ptr %9, align 8
  %10 = load ptr, ptr %6, align 8
  %11 = call i32 @tvb_captured_length(ptr noundef %10)
  %12 = icmp ult i32 %11, 4
  br i1 %12, label %13, label %14

13:                                               ; preds = %4
  store i32 0, ptr %5, align 4
  br label %33

14:                                               ; preds = %4
  %15 = load ptr, ptr %6, align 8
  %16 = call i32 @tvb_memeql(ptr noundef %15, i32 noundef 0, ptr noundef @etch_magic, i64 noundef 4)
  %17 = icmp eq i32 %16, -1
  br i1 %17, label %18, label %19

18:                                               ; preds = %14
  store i32 0, ptr %5, align 4
  br label %33

19:                                               ; preds = %14
  %20 = load ptr, ptr %6, align 8
  %21 = load ptr, ptr %7, align 8
  %22 = load ptr, ptr %8, align 8
  %23 = load ptr, ptr %9, align 8
  call void @tcp_dissect_pdus(ptr noundef %20, ptr noundef %21, ptr noundef %22, i1 noundef zeroext true, i32 noundef 8, ptr noundef @get_etch_message_len, ptr noundef @dissect_etch_message, ptr noundef %23)
  %24 = load i32, ptr @gbl_pdu_counter, align 4
  %25 = icmp sgt i32 %24, 0
  br i1 %25, label %26, label %32

26:                                               ; preds = %19
  %27 = load ptr, ptr %7, align 8
  %28 = getelementptr inbounds nuw %struct._packet_info, ptr %27, i32 0, i32 1
  %29 = load ptr, ptr %28, align 8
  %30 = load i32, ptr @gbl_pdu_counter, align 4
  %31 = add i32 %30, 1
  call void (ptr, i32, ptr, ...) @col_prepend_fstr(ptr noundef %29, i32 noundef 25, ptr noundef @.str.66, i32 noundef %31)
  br label %32

32:                                               ; preds = %26, %19
  store i32 1, ptr %5, align 4
  br label %33

33:                                               ; preds = %32, %18, %13
  %34 = load i32, ptr %5, align 4
  ret i32 %34
}

; Function Attrs: null_pointer_is_valid sspstrong uwtable
define internal zeroext i1 @dissect_etch_heur(ptr noundef %0, ptr noundef %1, ptr noundef %2, ptr noundef %3) #0 {
  %5 = alloca ptr, align 8
  %6 = alloca ptr, align 8
  %7 = alloca ptr, align 8
  %8 = alloca ptr, align 8
  store ptr %0, ptr %5, align 8
  store ptr %1, ptr %6, align 8
  store ptr %2, ptr %7, align 8
  store ptr %3, ptr %8, align 8
  %9 = load ptr, ptr %5, align 8
  %10 = load ptr, ptr %6, align 8
  %11 = load ptr, ptr %7, align 8
  %12 = load ptr, ptr %8, align 8
  %13 = call i32 @dissect_etch(ptr noundef %9, ptr noundef %10, ptr noundef %11, ptr noundef %12)
  %14 = icmp sgt i32 %13, 0
  ret i1 %14
}