; Function Attrs: null_pointer_is_valid sspstrong uwtable
define internal noundef zeroext i1 @dissect_etch_heur(ptr noundef %0, ptr noundef %1, ptr noundef %2, ptr noundef %3) #0 {
  %5 = tail call i32 @tvb_captured_length(ptr noundef %0)
  %6 = icmp ult i32 %5, 4
  br i1 %6, label %dissect_etch.exit, label %7

7:                                                ; preds = %4
  %8 = tail call i32 @tvb_memeql(ptr noundef %0, i32 noundef 0, ptr noundef nonnull @etch_magic, i64 noundef 4)
  %9 = icmp eq i32 %8, -1
  br i1 %9, label %dissect_etch.exit, label %10

10:                                               ; preds = %7
  tail call void @tcp_dissect_pdus(ptr noundef %0, ptr noundef %1, ptr noundef %2, i1 noundef zeroext true, i32 noundef 8, ptr noundef nonnull @get_etch_message_len, ptr noundef nonnull @dissect_etch_message, ptr noundef %3)
  %11 = load i32, ptr @gbl_pdu_counter, align 4
  %12 = icmp sgt i32 %11, 0
  br i1 %12, label %13, label %dissect_etch.exit

13:                                               ; preds = %10
  %14 = getelementptr inbounds nuw i8, ptr %1, i64 8
  %15 = load ptr, ptr %14, align 8
  %16 = add nuw i32 %11, 1
  tail call void (ptr, i32, ptr, ...) @col_prepend_fstr(ptr noundef %15, i32 noundef 25, ptr noundef nonnull @.str.66, i32 noundef %16)
  br label %dissect_etch.exit

dissect_etch.exit:                                ; preds = %4, %7, %10, %13
  %17 = phi i1 [ false, %4 ], [ false, %7 ], [ true, %13 ], [ true, %10 ]
  ret i1 %17
}